target datalayout = "e-m:e-p270:32:32-p271:32:32-p272:64:64-i64:64-i128:128-f80:128-n8:16:32:64-S128"
target triple = "x86_64-pc-linux-gnu"

%struct.container_state_msg_t = type { ptr, ptr, i32, i32, ptr, ptr }

@.str = private unnamed_addr constant [22 x i8] c"slurm_protocol_defs.c\00", align 1
@__func__.slurm_create_container_state_msg = private unnamed_addr constant [33 x i8] c"slurm_create_container_state_msg\00", align 1

; Function Attrs: nounwind uwtable
define dso_local ptr @slurm_create_container_state_msg() #0 {
  %1 = alloca ptr, align 8
  call void @llvm.lifetime.start.p0(i64 8, ptr %1) #11
  %2 = call ptr @slurm_xcalloc(i64 noundef 1, i64 noundef 40, i1 noundef zeroext true, i1 noundef zeroext false, ptr noundef @.str, i32 noundef 1408, ptr noundef @__func__.slurm_create_container_state_msg)
  store ptr %2, ptr %1, align 8
  %3 = load ptr, ptr %1, align 8
  %4 = getelementptr inbounds nuw %struct.container_state_msg_t, ptr %3, i32 0, i32 2
  store i32 44544, ptr %4, align 8
  %5 = load ptr, ptr %1, align 8
  %6 = getelementptr inbounds nuw %struct.container_state_msg_t, ptr %5, i32 0, i32 3
  store i32 -2, ptr %6, align 4
  %7 = call ptr @list_create(ptr noundef @destroy_config_key_pair)
  %8 = load ptr, ptr %1, align 8
  %9 = getelementptr inbounds nuw %struct.container_state_msg_t, ptr %8, i32 0, i32 5
  store ptr %7, ptr %9, align 8
  %10 = load ptr, ptr %1, align 8
  call void @llvm.lifetime.end.p0(i64 8, ptr %1) #11
  ret ptr %10
}