; Function Attrs: nounwind uwtable
define dso_local ptr @slurm_create_container_state_msg() local_unnamed_addr #1 {
  %1 = tail call ptr @slurm_xcalloc(i64 noundef 1, i64 noundef 40, i1 noundef zeroext true, i1 noundef zeroext false, ptr noundef nonnull @.str, i32 noundef 1408, ptr noundef nonnull @__func__.slurm_create_container_state_msg) #24
  %2 = getelementptr inbounds nuw i8, ptr %1, i64 16
  store i32 44544, ptr %2, align 8
  %3 = getelementptr inbounds nuw i8, ptr %1, i64 20
  store i32 -2, ptr %3, align 4
  %4 = tail call ptr @list_create(ptr noundef nonnull @destroy_config_key_pair) #24
  %5 = getelementptr inbounds nuw i8, ptr %1, i64 32
  store ptr %4, ptr %5, align 8
  ret ptr %1
}